target datalayout = "e-m:e-p270:32:32-p271:32:32-p272:64:64-i64:64-i128:128-f80:128-n8:16:32:64-S128"
target triple = "x86_64-pc-linux-gnu"

%struct.index_state = type { ptr, i32, i32, i32, i32, ptr, ptr, ptr, %struct.cache_time, i8, i32, %struct.hashmap, %struct.hashmap, %struct.object_id, ptr, ptr, ptr, ptr, ptr, ptr, ptr }
%struct.cache_time = type { i32, i32 }
%struct.hashmap = type { ptr, ptr, ptr, i32, i32, i32, i32, i8 }
%struct.object_id = type { [32 x i8], i32 }
%struct.cache_entry = type { %struct.hashmap_entry, %struct.stat_data, i32, i32, i32, i32, i32, %struct.object_id, [0 x i8] }
%struct.hashmap_entry = type { ptr, i32 }
%struct.stat_data = type { %struct.cache_time, %struct.cache_time, i32, i32, i32, i32, i32 }
%struct.split_index = type { %struct.object_id, ptr, ptr, ptr, ptr, i32, i32, i32, i32 }

@.str = private unnamed_addr constant [1 x i8] zeroinitializer, align 1
@.str.9 = private unnamed_addr constant [18 x i8] c"invalid path '%s'\00", align 1
@should_validate_cache_entries.validate_index_cache_entries = internal global i32 -1, align 4
@.str.45 = private unnamed_addr constant [38 x i8] c"GIT_TEST_VALIDATE_INDEX_CACHE_ENTRIES\00", align 1
@git_gettext_enabled = external global i32, align 4

; Function Attrs: nounwind uwtable
define dso_local i32 @should_validate_cache_entries() #0 {
  %1 = load i32, ptr @should_validate_cache_entries.validate_index_cache_entries, align 4, !tbaa !9
  %2 = icmp slt i32 %1, 0
  br i1 %2, label %3, label %9

3:                                                ; preds = %0
  %4 = call ptr @getenv(ptr noundef @.str.45) #12
  %5 = icmp ne ptr %4, null
  br i1 %5, label %6, label %7

6:                                                ; preds = %3
  store i32 1, ptr @should_validate_cache_entries.validate_index_cache_entries, align 4, !tbaa !9
  br label %8

7:                                                ; preds = %3
  store i32 0, ptr @should_validate_cache_entries.validate_index_cache_entries, align 4, !tbaa !9
  br label %8

8:                                                ; preds = %7, %6
  br label %9

9:                                                ; preds = %8, %0
  %10 = load i32, ptr @should_validate_cache_entries.validate_index_cache_entries, align 4, !tbaa !9
  ret i32 %10
}

; Function Attrs: inlinehint nounwind uwtable
define internal ptr @mem_pool__ce_calloc(ptr noundef %0, i64 noundef %1) #3 {
  %3 = alloca ptr, align 8
  %4 = alloca i64, align 8
  %5 = alloca ptr, align 8
  store ptr %0, ptr %3, align 8, !tbaa !76
  store i64 %1, ptr %4, align 8, !tbaa !31
  call void @llvm.lifetime.start.p0(i64 8, ptr %5) #12
  %6 = load ptr, ptr %3, align 8, !tbaa !76
  %7 = load i64, ptr %4, align 8, !tbaa !31
  %8 = add i64 108, %7
  %9 = add i64 %8, 1
  %10 = call ptr @mem_pool_calloc(ptr noundef %6, i64 noundef 1, i64 noundef %9)
  store ptr %10, ptr %5, align 8, !tbaa !29
  %11 = load ptr, ptr %5, align 8, !tbaa !29
  %12 = getelementptr inbounds nuw %struct.cache_entry, ptr %11, i32 0, i32 4
  store i32 1, ptr %12, align 4, !tbaa !9
  %13 = load ptr, ptr %5, align 8, !tbaa !29
  call void @llvm.lifetime.end.p0(i64 8, ptr %5) #12
  ret ptr %13
}

; Function Attrs: nounwind uwtable
define internal ptr @find_mem_pool(ptr noundef %0) #0 {
  %2 = alloca ptr, align 8
  %3 = alloca ptr, align 8
  store ptr %0, ptr %2, align 8, !tbaa !4
  call void @llvm.lifetime.start.p0(i64 8, ptr %3) #12
  %4 = load ptr, ptr %2, align 8, !tbaa !4
  %5 = getelementptr inbounds nuw %struct.index_state, ptr %4, i32 0, i32 7
  %6 = load ptr, ptr %5, align 8, !tbaa !77
  %7 = icmp ne ptr %6, null
  br i1 %7, label %8, label %22

8:                                                ; preds = %1
  %9 = load ptr, ptr %2, align 8, !tbaa !4
  %10 = getelementptr inbounds nuw %struct.index_state, ptr %9, i32 0, i32 7
  %11 = load ptr, ptr %10, align 8, !tbaa !77
  %12 = getelementptr inbounds nuw %struct.split_index, ptr %11, i32 0, i32 1
  %13 = load ptr, ptr %12, align 8, !tbaa !78
  %14 = icmp ne ptr %13, null
  br i1 %14, label %15, label %22

15:                                               ; preds = %8
  %16 = load ptr, ptr %2, align 8, !tbaa !4
  %17 = getelementptr inbounds nuw %struct.index_state, ptr %16, i32 0, i32 7
  %18 = load ptr, ptr %17, align 8, !tbaa !77
  %19 = getelementptr inbounds nuw %struct.split_index, ptr %18, i32 0, i32 1
  %20 = load ptr, ptr %19, align 8, !tbaa !78
  %21 = getelementptr inbounds nuw %struct.index_state, ptr %20, i32 0, i32 17
  store ptr %21, ptr %3, align 8, !tbaa !80
  br label %25

22:                                               ; preds = %8, %1
  %23 = load ptr, ptr %2, align 8, !tbaa !4
  %24 = getelementptr inbounds nuw %struct.index_state, ptr %23, i32 0, i32 17
  store ptr %24, ptr %3, align 8, !tbaa !80
  br label %25

25:                                               ; preds = %22, %15
  %26 = load ptr, ptr %3, align 8, !tbaa !80
  %27 = load ptr, ptr %26, align 8, !tbaa !76
  %28 = icmp ne ptr %27, null
  br i1 %28, label %34, label %29

29:                                               ; preds = %25
  %30 = call ptr @xmalloc(i64 noundef 24)
  %31 = load ptr, ptr %3, align 8, !tbaa !80
  store ptr %30, ptr %31, align 8, !tbaa !76
  %32 = load ptr, ptr %3, align 8, !tbaa !80
  %33 = load ptr, ptr %32, align 8, !tbaa !76
  call void @mem_pool_init(ptr noundef %33, i64 noundef 0)
  br label %34

34:                                               ; preds = %29, %25
  %35 = load ptr, ptr %3, align 8, !tbaa !80
  %36 = load ptr, ptr %35, align 8, !tbaa !76
  call void @llvm.lifetime.end.p0(i64 8, ptr %3) #12
  ret ptr %36
}

; Function Attrs: nounwind uwtable
define dso_local void @discard_cache_entry(ptr noundef %0) #0 {
  %2 = alloca ptr, align 8
  store ptr %0, ptr %2, align 8, !tbaa !29
  %3 = load ptr, ptr %2, align 8, !tbaa !29
  %4 = icmp ne ptr %3, null
  br i1 %4, label %5, label %16

5:                                                ; preds = %1
  %6 = call i32 @should_validate_cache_entries()
  %7 = icmp ne i32 %6, 0
  br i1 %7, label %8, label %16

8:                                                ; preds = %5
  %9 = load ptr, ptr %2, align 8, !tbaa !29
  %10 = load ptr, ptr %2, align 8, !tbaa !29
  %11 = getelementptr inbounds nuw %struct.cache_entry, ptr %10, i32 0, i32 5
  %12 = load i32, ptr %11, align 8, !tbaa !9
  %13 = zext i32 %12 to i64
  %14 = add i64 108, %13
  %15 = add i64 %14, 1
  call void @llvm.memset.p0.i64(ptr align 8 %9, i8 -51, i64 %15, i1 false)
  br label %16

16:                                               ; preds = %8, %5, %1
  %17 = load ptr, ptr %2, align 8, !tbaa !29
  %18 = icmp ne ptr %17, null
  br i1 %18, label %19, label %25

19:                                               ; preds = %16
  %20 = load ptr, ptr %2, align 8, !tbaa !29
  %21 = getelementptr inbounds nuw %struct.cache_entry, ptr %20, i32 0, i32 4
  %22 = load i32, ptr %21, align 4, !tbaa !9
  %23 = icmp ne i32 %22, 0
  br i1 %23, label %24, label %25

24:                                               ; preds = %19
  br label %27

25:                                               ; preds = %19, %16
  %26 = load ptr, ptr %2, align 8, !tbaa !29
  call void @free(ptr noundef %26) #12
  br label %27

27:                                               ; preds = %25, %24
  ret void
}

; Function Attrs: nounwind uwtable
define dso_local ptr @refresh_cache_entry(ptr noundef %0, ptr noundef %1, i32 noundef %2) #0 {
  %4 = alloca ptr, align 8
  %5 = alloca ptr, align 8
  %6 = alloca i32, align 4
  store ptr %0, ptr %4, align 8, !tbaa !4
  store ptr %1, ptr %5, align 8, !tbaa !29
  store i32 %2, ptr %6, align 4, !tbaa !9
  %7 = load ptr, ptr %4, align 8, !tbaa !4
  %8 = load ptr, ptr %5, align 8, !tbaa !29
  %9 = load i32, ptr %6, align 4, !tbaa !9
  %10 = call ptr @refresh_cache_ent(ptr noundef %7, ptr noundef %8, i32 noundef %9, ptr noundef null, ptr noundef null, ptr noundef null, ptr noundef null)
  ret ptr %10
}

; Function Attrs: inlinehint nounwind uwtable
define internal i32 @create_ce_mode(i32 noundef %0) #3 {
  %2 = alloca i32, align 4
  %3 = alloca i32, align 4
  store i32 %0, ptr %3, align 4, !tbaa !9
  %4 = load i32, ptr %3, align 4, !tbaa !9
  %5 = and i32 %4, 61440
  %6 = icmp eq i32 %5, 40960
  br i1 %6, label %7, label %8

7:                                                ; preds = %1
  store i32 40960, ptr %2, align 4
  br label %27

8:                                                ; preds = %1
  %9 = load i32, ptr %3, align 4, !tbaa !9
  %10 = icmp eq i32 %9, 16384
  br i1 %10, label %11, label %12

11:                                               ; preds = %8
  store i32 16384, ptr %2, align 4
  br label %27

12:                                               ; preds = %8
  %13 = load i32, ptr %3, align 4, !tbaa !9
  %14 = and i32 %13, 61440
  %15 = icmp eq i32 %14, 16384
  br i1 %15, label %20, label %16

16:                                               ; preds = %12
  %17 = load i32, ptr %3, align 4, !tbaa !9
  %18 = and i32 %17, 61440
  %19 = icmp eq i32 %18, 57344
  br i1 %19, label %20, label %21

20:                                               ; preds = %16, %12
  store i32 57344, ptr %2, align 4
  br label %27

21:                                               ; preds = %16
  %22 = load i32, ptr %3, align 4, !tbaa !9
  %23 = and i32 %22, 64
  %24 = icmp ne i32 %23, 0
  %25 = select i1 %24, i32 493, i32 420
  %26 = or i32 32768, %25
  store i32 %26, ptr %2, align 4
  br label %27

27:                                               ; preds = %21, %20, %11, %7
  %28 = load i32, ptr %2, align 4
  ret i32 %28
}

; Function Attrs: inlinehint nounwind uwtable
define internal i32 @create_ce_flags(i32 noundef %0) #3 {
  %2 = alloca i32, align 4
  store i32 %0, ptr %2, align 4, !tbaa !9
  %3 = load i32, ptr %2, align 4, !tbaa !9
  %4 = shl i32 %3, 12
  ret i32 %4
}

; Function Attrs: inlinehint nounwind uwtable
define internal void @oidcpy(ptr noundef %0, ptr noundef %1) #3 {
  %3 = alloca ptr, align 8
  %4 = alloca ptr, align 8
  store ptr %0, ptr %3, align 8, !tbaa !71
  store ptr %1, ptr %4, align 8, !tbaa !71
  %5 = load ptr, ptr %3, align 8, !tbaa !71
  %6 = getelementptr inbounds nuw %struct.object_id, ptr %5, i32 0, i32 0
  %7 = getelementptr inbounds [32 x i8], ptr %6, i64 0, i64 0
  %8 = load ptr, ptr %4, align 8, !tbaa !71
  %9 = getelementptr inbounds nuw %struct.object_id, ptr %8, i32 0, i32 0
  %10 = getelementptr inbounds [32 x i8], ptr %9, i64 0, i64 0
  call void @llvm.memcpy.p0.p0.i64(ptr align 4 %7, ptr align 4 %10, i64 32, i1 false)
  %11 = load ptr, ptr %4, align 8, !tbaa !71
  %12 = getelementptr inbounds nuw %struct.object_id, ptr %11, i32 0, i32 1
  %13 = load i32, ptr %12, align 4, !tbaa !74
  %14 = load ptr, ptr %3, align 8, !tbaa !71
  %15 = getelementptr inbounds nuw %struct.object_id, ptr %14, i32 0, i32 1
  store i32 %13, ptr %15, align 4, !tbaa !74
  ret void
}

; Function Attrs: nounwind uwtable
define dso_local ptr @make_empty_cache_entry(ptr noundef %0, i64 noundef %1) #0 {
  %3 = alloca ptr, align 8
  %4 = alloca i64, align 8
  store ptr %0, ptr %3, align 8, !tbaa !4
  store i64 %1, ptr %4, align 8, !tbaa !31
  %5 = load ptr, ptr %3, align 8, !tbaa !4
  %6 = call ptr @find_mem_pool(ptr noundef %5)
  %7 = load i64, ptr %4, align 8, !tbaa !31
  %8 = call ptr @mem_pool__ce_calloc(ptr noundef %6, i64 noundef %7)
  ret ptr %8
}

; Function Attrs: inlinehint nounwind uwtable
define internal i32 @const_error() #3 {
  ret i32 -1
}

; Function Attrs: inlinehint nounwind uwtable
define internal ptr @_(ptr noundef %0) #3 {
  %2 = alloca ptr, align 8
  %3 = alloca ptr, align 8
  store ptr %0, ptr %3, align 8, !tbaa !11
  %4 = load ptr, ptr %3, align 8, !tbaa !11
  %5 = load i8, ptr %4, align 1, !tbaa !73
  %6 = icmp ne i8 %5, 0
  br i1 %6, label %8, label %7

7:                                                ; preds = %1
  store ptr @.str, ptr %2, align 8
  br label %16

8:                                                ; preds = %1
  %9 = load i32, ptr @git_gettext_enabled, align 4, !tbaa !9
  %10 = icmp ne i32 %9, 0
  br i1 %10, label %13, label %11

11:                                               ; preds = %8
  %12 = load ptr, ptr %3, align 8, !tbaa !11
  store ptr %12, ptr %2, align 8
  br label %16

13:                                               ; preds = %8
  %14 = load ptr, ptr %3, align 8, !tbaa !11
  %15 = call ptr @dcgettext(ptr noundef null, ptr noundef %14, i32 noundef 5) #12
  store ptr %15, ptr %2, align 8
  br label %16

16:                                               ; preds = %13, %11, %7
  %17 = load ptr, ptr %2, align 8
  ret ptr %17
}

; Function Attrs: nounwind uwtable
define dso_local ptr @make_cache_entry(ptr noundef %0, i32 noundef %1, ptr noundef %2, ptr noundef %3, i32 noundef %4, i32 noundef %5) #0 {
  %7 = alloca ptr, align 8
  %8 = alloca ptr, align 8
  %9 = alloca i32, align 4
  %10 = alloca ptr, align 8
  %11 = alloca ptr, align 8
  %12 = alloca i32, align 4
  %13 = alloca i32, align 4
  %14 = alloca ptr, align 8
  %15 = alloca ptr, align 8
  %16 = alloca i32, align 4
  %17 = alloca i32, align 4
  store ptr %0, ptr %8, align 8, !tbaa !4
  store i32 %1, ptr %9, align 4, !tbaa !9
  store ptr %2, ptr %10, align 8, !tbaa !71
  store ptr %3, ptr %11, align 8, !tbaa !11
  store i32 %4, ptr %12, align 4, !tbaa !9
  store i32 %5, ptr %13, align 4, !tbaa !9
  call void @llvm.lifetime.start.p0(i64 8, ptr %14) #12
  call void @llvm.lifetime.start.p0(i64 8, ptr %15) #12
  call void @llvm.lifetime.start.p0(i64 4, ptr %16) #12
  %18 = load ptr, ptr %11, align 8, !tbaa !11
  %19 = load i32, ptr %9, align 4, !tbaa !9
  %20 = call i32 @verify_path_internal(ptr noundef %18, i32 noundef %19)
  %21 = icmp eq i32 %20, 1
  br i1 %21, label %22, label %27

22:                                               ; preds = %6
  %23 = call ptr @_(ptr noundef @.str.9)
  %24 = load ptr, ptr %11, align 8, !tbaa !11
  %25 = call i32 (ptr, ...) @error(ptr noundef %23, ptr noundef %24)
  %26 = call i32 @const_error()
  store ptr null, ptr %7, align 8
  store i32 1, ptr %17, align 4
  br label %66

27:                                               ; preds = %6
  %28 = load ptr, ptr %11, align 8, !tbaa !11
  %29 = call i64 @strlen(ptr noundef %28) #13
  %30 = trunc i64 %29 to i32
  store i32 %30, ptr %16, align 4, !tbaa !9
  %31 = load ptr, ptr %8, align 8, !tbaa !4
  %32 = load i32, ptr %16, align 4, !tbaa !9
  %33 = sext i32 %32 to i64
  %34 = call ptr @make_empty_cache_entry(ptr noundef %31, i64 noundef %33)
  store ptr %34, ptr %14, align 8, !tbaa !29
  %35 = load ptr, ptr %14, align 8, !tbaa !29
  %36 = getelementptr inbounds nuw %struct.cache_entry, ptr %35, i32 0, i32 7
  %37 = load ptr, ptr %10, align 8, !tbaa !71
  call void @oidcpy(ptr noundef %36, ptr noundef %37)
  %38 = load ptr, ptr %14, align 8, !tbaa !29
  %39 = getelementptr inbounds nuw %struct.cache_entry, ptr %38, i32 0, i32 8
  %40 = getelementptr inbounds [0 x i8], ptr %39, i64 0, i64 0
  %41 = load ptr, ptr %11, align 8, !tbaa !11
  %42 = load i32, ptr %16, align 4, !tbaa !9
  %43 = sext i32 %42 to i64
  call void @llvm.memcpy.p0.p0.i64(ptr align 4 %40, ptr align 1 %41, i64 %43, i1 false)
  %44 = load i32, ptr %12, align 4, !tbaa !9
  %45 = call i32 @create_ce_flags(i32 noundef %44)
  %46 = load ptr, ptr %14, align 8, !tbaa !29
  %47 = getelementptr inbounds nuw %struct.cache_entry, ptr %46, i32 0, i32 3
  store i32 %45, ptr %47, align 8, !tbaa !9
  %48 = load i32, ptr %16, align 4, !tbaa !9
  %49 = load ptr, ptr %14, align 8, !tbaa !29
  %50 = getelementptr inbounds nuw %struct.cache_entry, ptr %49, i32 0, i32 5
  store i32 %48, ptr %50, align 8, !tbaa !9
  %51 = load i32, ptr %9, align 4, !tbaa !9
  %52 = call i32 @create_ce_mode(i32 noundef %51)
  %53 = load ptr, ptr %14, align 8, !tbaa !29
  %54 = getelementptr inbounds nuw %struct.cache_entry, ptr %53, i32 0, i32 2
  store i32 %52, ptr %54, align 4, !tbaa !9
  %55 = load ptr, ptr %8, align 8, !tbaa !4
  %56 = load ptr, ptr %14, align 8, !tbaa !29
  %57 = load i32, ptr %13, align 4, !tbaa !9
  %58 = call ptr @refresh_cache_entry(ptr noundef %55, ptr noundef %56, i32 noundef %57)
  store ptr %58, ptr %15, align 8, !tbaa !29
  %59 = load ptr, ptr %15, align 8, !tbaa !29
  %60 = load ptr, ptr %14, align 8, !tbaa !29
  %61 = icmp ne ptr %59, %60
  br i1 %61, label %62, label %64

62:                                               ; preds = %27
  %63 = load ptr, ptr %14, align 8, !tbaa !29
  call void @discard_cache_entry(ptr noundef %63)
  br label %64

64:                                               ; preds = %62, %27
  %65 = load ptr, ptr %15, align 8, !tbaa !29
  store ptr %65, ptr %7, align 8
  store i32 1, ptr %17, align 4
  br label %66

66:                                               ; preds = %64, %22
  call void @llvm.lifetime.end.p0(i64 4, ptr %16) #12
  call void @llvm.lifetime.end.p0(i64 8, ptr %15) #12
  call void @llvm.lifetime.end.p0(i64 8, ptr %14) #12
  %67 = load ptr, ptr %7, align 8
  ret ptr %67
}