; Function Attrs: nounwind uwtable
define dso_local noundef ptr @make_cache_entry(ptr noundef %0, i32 noundef %1, ptr noundef readonly captures(none) %2, ptr noundef %3, i32 noundef %4, i32 noundef %5) local_unnamed_addr #0 {
  %7 = tail call fastcc i32 @verify_path_internal(ptr noundef %3, i32 noundef %1)
  %8 = icmp eq i32 %7, 1
  br i1 %8, label %9, label %14

9:                                                ; preds = %6
  %10 = load i32, ptr @git_gettext_enabled, align 4, !tbaa !32
  %.not4.i = icmp eq i32 %10, 0
  br i1 %.not4.i, label %_.exit, label %11

11:                                               ; preds = %9
  %12 = tail call ptr @dcgettext(ptr noundef null, ptr noundef nonnull @.str.9, i32 noundef 5) #30
  br label %_.exit

_.exit:                                           ; preds = %9, %11
  %.0.i = phi ptr [ %12, %11 ], [ @.str.9, %9 ]
  %13 = tail call i32 (ptr, ...) @error(ptr noundef %.0.i, ptr noundef %3) #30
  br label %discard_cache_entry.exit

14:                                               ; preds = %6
  %15 = tail call i64 @strlen(ptr noundef nonnull dereferenceable(1) %3) #29
  %16 = trunc i64 %15 to i32
  %sext = shl i64 %15, 32
  %17 = ashr exact i64 %sext, 32
  %18 = getelementptr inbounds nuw i8, ptr %0, i64 40
  %19 = load ptr, ptr %18, align 8, !tbaa !27
  %.not.i.i = icmp eq ptr %19, null
  br i1 %.not.i.i, label %23, label %20

20:                                               ; preds = %14
  %21 = getelementptr inbounds nuw i8, ptr %19, i64 40
  %22 = load ptr, ptr %21, align 8, !tbaa !28
  %.not10.i.i = icmp eq ptr %22, null
  br i1 %.not10.i.i, label %23, label %24

23:                                               ; preds = %20, %14
  br label %24

24:                                               ; preds = %23, %20
  %.pn.i.i = phi ptr [ %0, %23 ], [ %22, %20 ]
  %.0.i.i = getelementptr inbounds nuw i8, ptr %.pn.i.i, i64 224
  %25 = load ptr, ptr %.0.i.i, align 8, !tbaa !31
  %.not11.i.i = icmp eq ptr %25, null
  br i1 %.not11.i.i, label %26, label %make_empty_cache_entry.exit

26:                                               ; preds = %24
  %27 = tail call ptr @xmalloc(i64 noundef 24) #30
  store ptr %27, ptr %.0.i.i, align 8, !tbaa !31
  tail call void @mem_pool_init(ptr noundef %27, i64 noundef 0) #30
  %.pre.i.i = load ptr, ptr %.0.i.i, align 8, !tbaa !31
  br label %make_empty_cache_entry.exit

make_empty_cache_entry.exit:                      ; preds = %24, %26
  %28 = phi ptr [ %.pre.i.i, %26 ], [ %25, %24 ]
  %29 = add nsw i64 %17, 109
  %30 = tail call ptr @mem_pool_calloc(ptr noundef %28, i64 noundef 1, i64 noundef %29) #30
  %31 = getelementptr inbounds nuw i8, ptr %30, i64 60
  store i32 1, ptr %31, align 4, !tbaa !32
  %32 = getelementptr inbounds nuw i8, ptr %30, i64 72
  tail call void @llvm.memcpy.p0.p0.i64(ptr noundef nonnull align 4 dereferenceable(32) %32, ptr noundef nonnull readonly align 4 dereferenceable(32) %2, i64 32, i1 false)
  %33 = getelementptr inbounds nuw i8, ptr %2, i64 32
  %34 = load i32, ptr %33, align 4, !tbaa !79
  %35 = getelementptr inbounds nuw i8, ptr %30, i64 104
  store i32 %34, ptr %35, align 4, !tbaa !79
  %36 = getelementptr inbounds nuw i8, ptr %30, i64 108
  tail call void @llvm.memcpy.p0.p0.i64(ptr nonnull align 4 %36, ptr nonnull align 1 %3, i64 %17, i1 false)
  %37 = shl i32 %4, 12
  %38 = getelementptr inbounds nuw i8, ptr %30, i64 56
  store i32 %37, ptr %38, align 8, !tbaa !32
  %39 = getelementptr inbounds nuw i8, ptr %30, i64 64
  store i32 %16, ptr %39, align 8, !tbaa !32
  %40 = and i32 %1, 61440
  %41 = icmp eq i32 %40, 40960
  br i1 %41, label %create_ce_mode.exit, label %42

42:                                               ; preds = %make_empty_cache_entry.exit
  %43 = icmp eq i32 %1, 16384
  br i1 %43, label %create_ce_mode.exit, label %44

44:                                               ; preds = %42
  %trunc.i = trunc nuw i32 %40 to i16
  switch i16 %trunc.i, label %45 [
    i16 16384, label %create_ce_mode.exit
    i16 -8192, label %create_ce_mode.exit
  ]

45:                                               ; preds = %44
  %46 = and i32 %1, 64
  %.not.i = icmp eq i32 %46, 0
  %47 = select i1 %.not.i, i32 33188, i32 33261
  br label %create_ce_mode.exit

create_ce_mode.exit:                              ; preds = %make_empty_cache_entry.exit, %42, %44, %44, %45
  %.0.i25 = phi i32 [ %47, %45 ], [ 40960, %make_empty_cache_entry.exit ], [ 16384, %42 ], [ 57344, %44 ], [ 57344, %44 ]
  %48 = getelementptr inbounds nuw i8, ptr %30, i64 52
  store i32 %.0.i25, ptr %48, align 4, !tbaa !32
  %49 = tail call fastcc noundef ptr @refresh_cache_ent(ptr noundef nonnull %0, ptr noundef nonnull %30, i32 noundef %5, ptr noundef null, ptr noundef null, ptr noundef null, ptr noundef null)
  %.not = icmp eq ptr %49, %30
  br i1 %.not, label %discard_cache_entry.exit, label %50

50:                                               ; preds = %create_ce_mode.exit
  %51 = load i32, ptr @should_validate_cache_entries.validate_index_cache_entries, align 4, !tbaa !32
  %52 = icmp slt i32 %51, 0
  br i1 %52, label %.sink.split.i.i, label %should_validate_cache_entries.exit.i

.sink.split.i.i:                                  ; preds = %50
  %53 = tail call ptr @getenv(ptr noundef nonnull @.str.45) #30
  %.not.i.i27 = icmp ne ptr %53, null
  %..i.i = zext i1 %.not.i.i27 to i32
  store i32 %..i.i, ptr @should_validate_cache_entries.validate_index_cache_entries, align 4, !tbaa !32
  br label %should_validate_cache_entries.exit.i

should_validate_cache_entries.exit.i:             ; preds = %.sink.split.i.i, %50
  %54 = phi i32 [ %51, %50 ], [ %..i.i, %.sink.split.i.i ]
  %.not6.i = icmp eq i32 %54, 0
  br i1 %.not6.i, label %59, label %55

55:                                               ; preds = %should_validate_cache_entries.exit.i
  %56 = load i32, ptr %39, align 8, !tbaa !32
  %57 = zext i32 %56 to i64
  %58 = add nuw nsw i64 %57, 109
  tail call void @llvm.memset.p0.i64(ptr noundef nonnull align 8 dereferenceable(1) %30, i8 -51, i64 %58, i1 false)
  br label %59

59:                                               ; preds = %55, %should_validate_cache_entries.exit.i
  %60 = load i32, ptr %31, align 4, !tbaa !32
  %.not7.i = icmp eq i32 %60, 0
  br i1 %.not7.i, label %.critedge.i, label %discard_cache_entry.exit

.critedge.i:                                      ; preds = %59
  tail call void @free(ptr noundef nonnull %30) #30
  br label %discard_cache_entry.exit

discard_cache_entry.exit:                         ; preds = %.critedge.i, %59, %create_ce_mode.exit, %_.exit
  %.0 = phi ptr [ null, %_.exit ], [ %49, %create_ce_mode.exit ], [ %49, %59 ], [ %49, %.critedge.i ]
  ret ptr %.0
}